target datalayout = "e-m:e-p270:32:32-p271:32:32-p272:64:64-i64:64-i128:128-f80:128-n8:16:32:64-S128"
target triple = "x86_64-pc-linux-gnu"

; Function Attrs: inlinehint nounwind uwtable
define internal void @store64(ptr noundef %0, i64 noundef %1) #2 {
  %3 = alloca ptr, align 8
  %4 = alloca i64, align 8
  store ptr %0, ptr %3, align 8, !tbaa !10
  store i64 %1, ptr %4, align 8, !tbaa !17
  %5 = load ptr, ptr %3, align 8, !tbaa !10
  call void @llvm.memcpy.p0.p0.i64(ptr align 1 %5, ptr align 8 %4, i64 8, i1 false)
  ret void
}

; Function Attrs: inlinehint nounwind uwtable
define internal i64 @__bswap_64(i64 noundef %0) #2 {
  %2 = alloca i64, align 8
  store i64 %0, ptr %2, align 8, !tbaa !17
  %3 = load i64, ptr %2, align 8, !tbaa !17
  %4 = and i64 %3, -72057594037927936
  %5 = lshr i64 %4, 56
  %6 = load i64, ptr %2, align 8, !tbaa !17
  %7 = and i64 %6, 71776119061217280
  %8 = lshr i64 %7, 40
  %9 = or i64 %5, %8
  %10 = load i64, ptr %2, align 8, !tbaa !17
  %11 = and i64 %10, 280375465082880
  %12 = lshr i64 %11, 24
  %13 = or i64 %9, %12
  %14 = load i64, ptr %2, align 8, !tbaa !17
  %15 = and i64 %14, 1095216660480
  %16 = lshr i64 %15, 8
  %17 = or i64 %13, %16
  %18 = load i64, ptr %2, align 8, !tbaa !17
  %19 = and i64 %18, 4278190080
  %20 = shl i64 %19, 8
  %21 = or i64 %17, %20
  %22 = load i64, ptr %2, align 8, !tbaa !17
  %23 = and i64 %22, 16711680
  %24 = shl i64 %23, 24
  %25 = or i64 %21, %24
  %26 = load i64, ptr %2, align 8, !tbaa !17
  %27 = and i64 %26, 65280
  %28 = shl i64 %27, 40
  %29 = or i64 %25, %28
  %30 = load i64, ptr %2, align 8, !tbaa !17
  %31 = and i64 %30, 255
  %32 = shl i64 %31, 56
  %33 = or i64 %29, %32
  ret i64 %33
}

; Function Attrs: nounwind uwtable
define internal void @pad(i64 noundef %0, ptr noundef %1) #0 {
  %3 = alloca i64, align 8
  %4 = alloca ptr, align 8
  %5 = alloca ptr, align 8
  %6 = alloca ptr, align 8
  %7 = alloca i32, align 4
  %8 = alloca ptr, align 8
  store i64 %0, ptr %3, align 8, !tbaa !17
  store ptr %1, ptr %4, align 8, !tbaa !10
  call void @llvm.lifetime.start.p0(i64 8, ptr %5) #8
  %9 = load ptr, ptr %4, align 8, !tbaa !10
  store ptr %9, ptr %5, align 8, !tbaa !10
  %10 = load ptr, ptr %5, align 8, !tbaa !10
  %11 = getelementptr i8, ptr %10, i64 0
  store i8 -128, ptr %11, align 1, !tbaa !19
  call void @llvm.lifetime.start.p0(i64 8, ptr %6) #8
  %12 = load ptr, ptr %4, align 8, !tbaa !10
  %13 = getelementptr i8, ptr %12, i64 1
  store ptr %13, ptr %6, align 8, !tbaa !10
  call void @llvm.lifetime.start.p0(i64 4, ptr %7) #8
  store i32 0, ptr %7, align 4, !tbaa !8
  br label %14

14:                                               ; preds = %29, %2
  %15 = load i32, ptr %7, align 4, !tbaa !8
  %16 = load i64, ptr %3, align 8, !tbaa !17
  %17 = urem i64 %16, 64
  %18 = trunc i64 %17 to i32
  %19 = add i32 9, %18
  %20 = sub i32 128, %19
  %21 = urem i32 %20, 64
  %22 = icmp ult i32 %15, %21
  br i1 %22, label %24, label %23

23:                                               ; preds = %14
  call void @llvm.lifetime.end.p0(i64 4, ptr %7) #8
  br label %32

24:                                               ; preds = %14
  %25 = load ptr, ptr %6, align 8, !tbaa !10
  %26 = load i32, ptr %7, align 4, !tbaa !8
  %27 = zext i32 %26 to i64
  %28 = getelementptr i8, ptr %25, i64 %27
  store i8 0, ptr %28, align 1, !tbaa !19
  br label %29

29:                                               ; preds = %24
  %30 = load i32, ptr %7, align 4, !tbaa !8
  %31 = add i32 %30, 1
  store i32 %31, ptr %7, align 4, !tbaa !8
  br label %14, !llvm.loop !20

32:                                               ; preds = %23
  call void @llvm.lifetime.start.p0(i64 8, ptr %8) #8
  %33 = load ptr, ptr %4, align 8, !tbaa !10
  %34 = getelementptr i8, ptr %33, i64 1
  %35 = load i64, ptr %3, align 8, !tbaa !17
  %36 = urem i64 %35, 64
  %37 = trunc i64 %36 to i32
  %38 = add i32 9, %37
  %39 = sub i32 128, %38
  %40 = urem i32 %39, 64
  %41 = zext i32 %40 to i64
  %42 = getelementptr i8, ptr %34, i64 %41
  store ptr %42, ptr %8, align 8, !tbaa !10
  %43 = load ptr, ptr %8, align 8, !tbaa !10
  %44 = load i64, ptr %3, align 8, !tbaa !17
  %45 = shl i64 %44, 3
  %46 = call i64 @__bswap_64(i64 noundef %45)
  call void @store64(ptr noundef %43, i64 noundef %46)
  call void @llvm.lifetime.end.p0(i64 8, ptr %8) #8
  call void @llvm.lifetime.end.p0(i64 8, ptr %6) #8
  call void @llvm.lifetime.end.p0(i64 8, ptr %5) #8
  ret void
}

; Function Attrs: nounwind uwtable
define hidden void @python_hashlib_Hacl_Hash_SHA1_update_last(ptr noundef %0, i64 noundef %1, ptr noundef %2, i32 noundef %3) #0 {
  %5 = alloca ptr, align 8
  %6 = alloca i64, align 8
  %7 = alloca ptr, align 8
  %8 = alloca i32, align 4
  %9 = alloca i32, align 4
  %10 = alloca i32, align 4
  %11 = alloca ptr, align 8
  %12 = alloca i32, align 4
  %13 = alloca ptr, align 8
  %14 = alloca i64, align 8
  %15 = alloca i32, align 4
  %16 = alloca i32, align 4
  %17 = alloca [128 x i8], align 16
  %18 = alloca ptr, align 8
  %19 = alloca ptr, align 8
  %20 = alloca ptr, align 8
  store ptr %0, ptr %5, align 8, !tbaa !3
  store i64 %1, ptr %6, align 8, !tbaa !17
  store ptr %2, ptr %7, align 8, !tbaa !10
  store i32 %3, ptr %8, align 4, !tbaa !8
  call void @llvm.lifetime.start.p0(i64 4, ptr %9) #8
  %21 = load i32, ptr %8, align 4, !tbaa !8
  %22 = udiv i32 %21, 64
  store i32 %22, ptr %9, align 4, !tbaa !8
  call void @llvm.lifetime.start.p0(i64 4, ptr %10) #8
  %23 = load i32, ptr %9, align 4, !tbaa !8
  %24 = mul i32 %23, 64
  store i32 %24, ptr %10, align 4, !tbaa !8
  call void @llvm.lifetime.start.p0(i64 8, ptr %11) #8
  %25 = load ptr, ptr %7, align 8, !tbaa !10
  store ptr %25, ptr %11, align 8, !tbaa !10
  call void @llvm.lifetime.start.p0(i64 4, ptr %12) #8
  %26 = load i32, ptr %8, align 4, !tbaa !8
  %27 = load i32, ptr %10, align 4, !tbaa !8
  %28 = sub i32 %26, %27
  store i32 %28, ptr %12, align 4, !tbaa !8
  call void @llvm.lifetime.start.p0(i64 8, ptr %13) #8
  %29 = load ptr, ptr %7, align 8, !tbaa !10
  %30 = load i32, ptr %10, align 4, !tbaa !8
  %31 = zext i32 %30 to i64
  %32 = getelementptr i8, ptr %29, i64 %31
  store ptr %32, ptr %13, align 8, !tbaa !10
  %33 = load ptr, ptr %5, align 8, !tbaa !3
  %34 = load ptr, ptr %11, align 8, !tbaa !10
  %35 = load i32, ptr %9, align 4, !tbaa !8
  call void @python_hashlib_Hacl_Hash_SHA1_update_multi(ptr noundef %33, ptr noundef %34, i32 noundef %35)
  call void @llvm.lifetime.start.p0(i64 8, ptr %14) #8
  %36 = load i64, ptr %6, align 8, !tbaa !17
  %37 = load i32, ptr %8, align 4, !tbaa !8
  %38 = zext i32 %37 to i64
  %39 = add i64 %36, %38
  store i64 %39, ptr %14, align 8, !tbaa !17
  call void @llvm.lifetime.start.p0(i64 4, ptr %15) #8
  %40 = load i64, ptr %14, align 8, !tbaa !17
  %41 = urem i64 %40, 64
  %42 = trunc i64 %41 to i32
  %43 = add i32 9, %42
  %44 = sub i32 128, %43
  %45 = urem i32 %44, 64
  %46 = add i32 1, %45
  %47 = add i32 %46, 8
  store i32 %47, ptr %15, align 4, !tbaa !8
  call void @llvm.lifetime.start.p0(i64 4, ptr %16) #8
  %48 = load i32, ptr %12, align 4, !tbaa !8
  %49 = load i32, ptr %15, align 4, !tbaa !8
  %50 = add i32 %48, %49
  store i32 %50, ptr %16, align 4, !tbaa !8
  call void @llvm.lifetime.start.p0(i64 128, ptr %17) #8
  call void @llvm.memset.p0.i64(ptr align 16 %17, i8 0, i64 128, i1 false)
  call void @llvm.lifetime.start.p0(i64 8, ptr %18) #8
  %51 = getelementptr inbounds [128 x i8], ptr %17, i64 0, i64 0
  store ptr %51, ptr %18, align 8, !tbaa !10
  call void @llvm.lifetime.start.p0(i64 8, ptr %19) #8
  %52 = load ptr, ptr %18, align 8, !tbaa !10
  store ptr %52, ptr %19, align 8, !tbaa !10
  call void @llvm.lifetime.start.p0(i64 8, ptr %20) #8
  %53 = load ptr, ptr %18, align 8, !tbaa !10
  %54 = load i32, ptr %12, align 4, !tbaa !8
  %55 = zext i32 %54 to i64
  %56 = getelementptr i8, ptr %53, i64 %55
  store ptr %56, ptr %20, align 8, !tbaa !10
  %57 = load ptr, ptr %19, align 8, !tbaa !10
  %58 = load ptr, ptr %13, align 8, !tbaa !10
  %59 = load i32, ptr %12, align 4, !tbaa !8
  %60 = zext i32 %59 to i64
  %61 = mul i64 %60, 1
  call void @llvm.memcpy.p0.p0.i64(ptr align 1 %57, ptr align 1 %58, i64 %61, i1 false)
  %62 = load i64, ptr %14, align 8, !tbaa !17
  %63 = load ptr, ptr %20, align 8, !tbaa !10
  call void @pad(i64 noundef %62, ptr noundef %63)
  %64 = load ptr, ptr %5, align 8, !tbaa !3
  %65 = load ptr, ptr %18, align 8, !tbaa !10
  %66 = load i32, ptr %16, align 4, !tbaa !8
  %67 = udiv i32 %66, 64
  call void @python_hashlib_Hacl_Hash_SHA1_update_multi(ptr noundef %64, ptr noundef %65, i32 noundef %67)
  call void @llvm.lifetime.end.p0(i64 8, ptr %20) #8
  call void @llvm.lifetime.end.p0(i64 8, ptr %19) #8
  call void @llvm.lifetime.end.p0(i64 8, ptr %18) #8
  call void @llvm.lifetime.end.p0(i64 128, ptr %17) #8
  call void @llvm.lifetime.end.p0(i64 4, ptr %16) #8
  call void @llvm.lifetime.end.p0(i64 4, ptr %15) #8
  call void @llvm.lifetime.end.p0(i64 8, ptr %14) #8
  call void @llvm.lifetime.end.p0(i64 8, ptr %13) #8
  call void @llvm.lifetime.end.p0(i64 4, ptr %12) #8
  call void @llvm.lifetime.end.p0(i64 8, ptr %11) #8
  call void @llvm.lifetime.end.p0(i64 4, ptr %10) #8
  call void @llvm.lifetime.end.p0(i64 4, ptr %9) #8
  ret void
}