; Function Attrs: nofree norecurse nosync nounwind memory(argmem: readwrite) uwtable
define hidden void @python_hashlib_Hacl_Hash_SHA1_update_last(ptr noundef captures(none) %0, i64 noundef %1, ptr noundef readonly captures(none) %2, i32 noundef %3) local_unnamed_addr #3 {
  %5 = alloca [128 x i8], align 16
  %6 = lshr i32 %3, 6
  %7 = and i32 %3, -64
  %8 = and i32 %3, 63
  %9 = zext i32 %7 to i64
  %10 = getelementptr i8, ptr %2, i64 %9
  tail call void @python_hashlib_Hacl_Hash_SHA1_update_multi(ptr noundef %0, ptr noundef %2, i32 noundef %6)
  %11 = zext i32 %3 to i64
  %12 = add i64 %1, %11
  %13 = trunc i64 %12 to i32
  %14 = sub i32 55, %13
  %15 = and i32 %14, 63
  call void @llvm.lifetime.start.p0(i64 128, ptr nonnull %5) #15
  call void @llvm.memset.p0.i64(ptr noundef nonnull align 16 dereferenceable(128) %5, i8 0, i64 128, i1 false)
  %16 = zext nneg i32 %8 to i64
  %17 = getelementptr i8, ptr %5, i64 %16
  call void @llvm.memcpy.p0.p0.i64(ptr nonnull align 16 %5, ptr align 1 %10, i64 %16, i1 false)
  store i8 -128, ptr %17, align 1, !tbaa !11
  %18 = getelementptr i8, ptr %17, i64 1
  %.not.i = icmp eq i32 %15, 0
  br i1 %.not.i, label %pad.exit, label %.lr.ph.preheader.i

.lr.ph.preheader.i:                               ; preds = %4
  %19 = sub i64 55, %12
  %20 = and i64 %19, 63
  call void @llvm.memset.p0.i64(ptr align 1 %18, i8 0, i64 %20, i1 false), !tbaa !11
  br label %pad.exit

pad.exit:                                         ; preds = %4, %.lr.ph.preheader.i
  %21 = add nuw nsw i32 %8, 9
  %22 = add nuw nsw i32 %21, %15
  %23 = zext nneg i32 %15 to i64
  %24 = getelementptr i8, ptr %18, i64 %23
  %25 = shl i64 %12, 3
  %26 = tail call noundef i64 @llvm.bswap.i64(i64 range(i64 0, -7) %25)
  store i64 %26, ptr %24, align 1
  %27 = lshr i32 %22, 6
  call void @python_hashlib_Hacl_Hash_SHA1_update_multi(ptr noundef %0, ptr noundef nonnull %5, i32 noundef %27)
  call void @llvm.lifetime.end.p0(i64 128, ptr nonnull %5) #15
  ret void
}